target datalayout = "e-m:e-p270:32:32-p271:32:32-p272:64:64-i64:64-i128:128-f80:128-n8:16:32:64-S128"
target triple = "x86_64-pc-linux-gnu"

%struct.AllocateDesc = type { i32, i32, %union.anon }
%union.anon = type { ptr }

@allocatedDescs = internal global ptr null, align 8
@numAllocatedDescs = internal global i32 0, align 4

; Function Attrs: nounwind uwtable
define dso_local void @AtEOSubXact_Files(i1 noundef zeroext %0, i32 noundef %1, i32 noundef %2) #0 {
  %4 = alloca i8, align 1
  %5 = alloca i32, align 4
  %6 = alloca i32, align 4
  %7 = alloca i32, align 4
  %8 = zext i1 %0 to i8
  store i8 %8, ptr %4, align 1
  store i32 %1, ptr %5, align 4
  store i32 %2, ptr %6, align 4
  call void @llvm.lifetime.start.p0(i64 4, ptr %7) #14
  store i32 0, ptr %7, align 4
  br label %9

9:                                                ; preds = %41, %3
  %10 = load i32, ptr %7, align 4
  %11 = load i32, ptr @numAllocatedDescs, align 4
  %12 = icmp ult i32 %10, %11
  br i1 %12, label %13, label %44

13:                                               ; preds = %9
  %14 = load ptr, ptr @allocatedDescs, align 8
  %15 = load i32, ptr %7, align 4
  %16 = zext i32 %15 to i64
  %17 = getelementptr inbounds nuw %struct.AllocateDesc, ptr %14, i64 %16
  %18 = getelementptr inbounds nuw %struct.AllocateDesc, ptr %17, i32 0, i32 1
  %19 = load i32, ptr %18, align 4
  %20 = load i32, ptr %5, align 4
  %21 = icmp eq i32 %19, %20
  br i1 %21, label %22, label %40

22:                                               ; preds = %13
  %23 = load i8, ptr %4, align 1, !range !4, !noundef !5
  %24 = trunc i8 %23 to i1
  br i1 %24, label %25, label %32

25:                                               ; preds = %22
  %26 = load i32, ptr %6, align 4
  %27 = load ptr, ptr @allocatedDescs, align 8
  %28 = load i32, ptr %7, align 4
  %29 = zext i32 %28 to i64
  %30 = getelementptr inbounds nuw %struct.AllocateDesc, ptr %27, i64 %29
  %31 = getelementptr inbounds nuw %struct.AllocateDesc, ptr %30, i32 0, i32 1
  store i32 %26, ptr %31, align 4
  br label %39

32:                                               ; preds = %22
  %33 = load ptr, ptr @allocatedDescs, align 8
  %34 = load i32, ptr %7, align 4
  %35 = add i32 %34, -1
  store i32 %35, ptr %7, align 4
  %36 = zext i32 %34 to i64
  %37 = getelementptr inbounds nuw %struct.AllocateDesc, ptr %33, i64 %36
  %38 = call i32 @FreeDesc(ptr noundef %37)
  br label %39

39:                                               ; preds = %32, %25
  br label %40

40:                                               ; preds = %39, %13
  br label %41

41:                                               ; preds = %40
  %42 = load i32, ptr %7, align 4
  %43 = add i32 %42, 1
  store i32 %43, ptr %7, align 4
  br label %9, !llvm.loop !20

44:                                               ; preds = %9
  call void @llvm.lifetime.end.p0(i64 4, ptr %7) #14
  ret void
}