; Function Attrs: nounwind uwtable
define dso_local void @AtEOSubXact_Files(i1 noundef zeroext %0, i32 noundef %1, i32 noundef %2) local_unnamed_addr #0 {
  %4 = load i32, ptr @numAllocatedDescs, align 4
  %.not = icmp eq i32 %4, 0
  br i1 %.not, label %._crit_edge, label %.lr.ph

.lr.ph:                                           ; preds = %3
  %5 = load ptr, ptr @allocatedDescs, align 8
  br i1 %0, label %.lr.ph.split.us, label %.lr.ph.split

.lr.ph.split.us:                                  ; preds = %.lr.ph
  %invariant.gep = getelementptr inbounds nuw i8, ptr %5, i64 4
  %wide.trip.count = zext i32 %4 to i64
  br label %6

6:                                                ; preds = %10, %.lr.ph.split.us
  %indvars.iv = phi i64 [ %indvars.iv.next, %10 ], [ 0, %.lr.ph.split.us ]
  %gep = getelementptr inbounds nuw %struct.AllocateDesc, ptr %invariant.gep, i64 %indvars.iv
  %7 = load i32, ptr %gep, align 4
  %8 = icmp eq i32 %7, %1
  br i1 %8, label %9, label %10

9:                                                ; preds = %6
  store i32 %2, ptr %gep, align 4
  br label %10

10:                                               ; preds = %9, %6
  %indvars.iv.next = add nuw nsw i64 %indvars.iv, 1
  %exitcond.not = icmp eq i64 %indvars.iv.next, %wide.trip.count
  br i1 %exitcond.not, label %._crit_edge, label %6, !llvm.loop !20

.lr.ph.split:                                     ; preds = %.lr.ph, %21
  %11 = phi i32 [ %22, %21 ], [ %4, %.lr.ph ]
  %12 = phi ptr [ %23, %21 ], [ %5, %.lr.ph ]
  %.08 = phi i32 [ %24, %21 ], [ 0, %.lr.ph ]
  %13 = zext i32 %.08 to i64
  %14 = getelementptr inbounds nuw %struct.AllocateDesc, ptr %12, i64 %13
  %15 = getelementptr inbounds nuw i8, ptr %14, i64 4
  %16 = load i32, ptr %15, align 4
  %17 = icmp eq i32 %16, %1
  br i1 %17, label %18, label %21

18:                                               ; preds = %.lr.ph.split
  %19 = add i32 %.08, -1
  %20 = tail call fastcc i32 @FreeDesc(ptr noundef nonnull %14)
  %.pre = load ptr, ptr @allocatedDescs, align 8
  %.pre12 = load i32, ptr @numAllocatedDescs, align 4
  br label %21

21:                                               ; preds = %.lr.ph.split, %18
  %22 = phi i32 [ %.pre12, %18 ], [ %11, %.lr.ph.split ]
  %23 = phi ptr [ %.pre, %18 ], [ %12, %.lr.ph.split ]
  %.1 = phi i32 [ %19, %18 ], [ %.08, %.lr.ph.split ]
  %24 = add i32 %.1, 1
  %25 = icmp ult i32 %24, %22
  br i1 %25, label %.lr.ph.split, label %._crit_edge, !llvm.loop !20

._crit_edge:                                      ; preds = %21, %10, %3
  ret void
}